target datalayout = "e-m:e-p270:32:32-p271:32:32-p272:64:64-i64:64-i128:128-f80:128-n8:16:32:64-S128"
target triple = "x86_64-pc-linux-gnu"

%struct.cli_asn1 = type { i8, i32, ptr, ptr }
%struct.cl_fmap = type { ptr, ptr, ptr, i64, i64, i64, i64, i8, i8, i8, i64, i64, i64, i64, ptr, ptr, ptr, ptr, ptr, ptr, ptr, i8, [16 x i8], i8, [20 x i8], i8, [32 x i8], ptr, ptr }

@.str.219 = private unnamed_addr constant [40 x i8] c"asn1_get_obj: insufficient data length\0A\00", align 1
@.str.220 = private unnamed_addr constant [31 x i8] c"asn1_get_obj: obj out of file\0A\00", align 1
@.str.221 = private unnamed_addr constant [52 x i8] c"asn1_get_obj: unsupported indefinite length object\0A\00", align 1
@.str.222 = private unnamed_addr constant [54 x i8] c"asn1_get_obj: len octets overflow (or just too many)\0A\00", align 1
@.str.223 = private unnamed_addr constant [32 x i8] c"asn1_get_obj: content overflow\0A\00", align 1

; Function Attrs: inlinehint nounwind uwtable
define internal i64 @fmap_ptr2off(ptr noundef %0, ptr noundef %1) #3 {
  %3 = alloca ptr, align 8
  %4 = alloca ptr, align 8
  store ptr %0, ptr %3, align 8, !tbaa !3
  store ptr %1, ptr %4, align 8, !tbaa !62
  %5 = load ptr, ptr %4, align 8, !tbaa !62
  %6 = load ptr, ptr %3, align 8, !tbaa !3
  %7 = getelementptr inbounds nuw %struct.cl_fmap, ptr %6, i32 0, i32 2
  %8 = load ptr, ptr %7, align 8, !tbaa !106
  %9 = ptrtoint ptr %5 to i64
  %10 = ptrtoint ptr %8 to i64
  %11 = sub i64 %9, %10
  %12 = load ptr, ptr %3, align 8, !tbaa !3
  %13 = getelementptr inbounds nuw %struct.cl_fmap, ptr %12, i32 0, i32 11
  %14 = load i64, ptr %13, align 8, !tbaa !107
  %15 = sub i64 %11, %14
  ret i64 %15
}

; Function Attrs: inlinehint nounwind uwtable
define internal ptr @fmap_need_ptr_once(ptr noundef %0, ptr noundef %1, i64 noundef %2) #3 {
  %4 = alloca ptr, align 8
  %5 = alloca ptr, align 8
  %6 = alloca i64, align 8
  store ptr %0, ptr %4, align 8, !tbaa !3
  store ptr %1, ptr %5, align 8, !tbaa !62
  store i64 %2, ptr %6, align 8, !tbaa !61
  %7 = load ptr, ptr %4, align 8, !tbaa !3
  %8 = getelementptr inbounds nuw %struct.cl_fmap, ptr %7, i32 0, i32 15
  %9 = load ptr, ptr %8, align 8, !tbaa !87
  %10 = load ptr, ptr %4, align 8, !tbaa !3
  %11 = load ptr, ptr %4, align 8, !tbaa !3
  %12 = load ptr, ptr %5, align 8, !tbaa !62
  %13 = call i64 @fmap_ptr2off(ptr noundef %11, ptr noundef %12)
  %14 = load i64, ptr %6, align 8, !tbaa !61
  %15 = call ptr %9(ptr noundef %10, i64 noundef %13, i64 noundef %14, i32 noundef 0)
  ret ptr %15
}

; Function Attrs: nounwind uwtable
define internal i32 @asn1_get_obj(ptr noundef %0, ptr noundef %1, ptr noundef %2, ptr noundef %3) #0 {
  %5 = alloca i32, align 4
  %6 = alloca ptr, align 8
  %7 = alloca ptr, align 8
  %8 = alloca ptr, align 8
  %9 = alloca ptr, align 8
  %10 = alloca i32, align 4
  %11 = alloca i32, align 4
  %12 = alloca i32, align 4
  %13 = alloca ptr, align 8
  %14 = alloca i32, align 4
  store ptr %0, ptr %6, align 8, !tbaa !3
  store ptr %1, ptr %7, align 8, !tbaa !62
  store ptr %2, ptr %8, align 8, !tbaa !63
  store ptr %3, ptr %9, align 8, !tbaa !83
  call void @llvm.lifetime.start.p0(i64 4, ptr %10) #8
  %15 = load ptr, ptr %8, align 8, !tbaa !63
  %16 = load i32, ptr %15, align 4, !tbaa !20
  store i32 %16, ptr %10, align 4, !tbaa !20
  call void @llvm.lifetime.start.p0(i64 4, ptr %11) #8
  %17 = load i32, ptr %10, align 4, !tbaa !20
  %18 = icmp ult i32 6, %17
  br i1 %18, label %19, label %20

19:                                               ; preds = %4
  br label %22

20:                                               ; preds = %4
  %21 = load i32, ptr %10, align 4, !tbaa !20
  br label %22

22:                                               ; preds = %20, %19
  %23 = phi i32 [ 6, %19 ], [ %21, %20 ]
  store i32 %23, ptr %11, align 4, !tbaa !20
  call void @llvm.lifetime.start.p0(i64 4, ptr %12) #8
  call void @llvm.lifetime.start.p0(i64 8, ptr %13) #8
  %24 = load i32, ptr %10, align 4, !tbaa !20
  %25 = icmp ult i32 %24, 2
  br i1 %25, label %26, label %27

26:                                               ; preds = %22
  call void (ptr, ...) @cli_dbgmsg(ptr noundef @.str.219)
  store i32 1, ptr %5, align 4
  store i32 1, ptr %14, align 4
  br label %133

27:                                               ; preds = %22
  %28 = load ptr, ptr %6, align 8, !tbaa !3
  %29 = load ptr, ptr %7, align 8, !tbaa !62
  %30 = load i32, ptr %11, align 4, !tbaa !20
  %31 = zext i32 %30 to i64
  %32 = call ptr @fmap_need_ptr_once(ptr noundef %28, ptr noundef %29, i64 noundef %31)
  store ptr %32, ptr %13, align 8, !tbaa !66
  %33 = load ptr, ptr %13, align 8, !tbaa !66
  %34 = icmp ne ptr %33, null
  br i1 %34, label %36, label %35

35:                                               ; preds = %27
  call void (ptr, ...) @cli_dbgmsg(ptr noundef @.str.220)
  store i32 1, ptr %5, align 4
  store i32 1, ptr %14, align 4
  br label %133

36:                                               ; preds = %27
  %37 = load ptr, ptr %13, align 8, !tbaa !66
  %38 = getelementptr inbounds i8, ptr %37, i64 0
  %39 = load i8, ptr %38, align 1, !tbaa !22
  %40 = load ptr, ptr %9, align 8, !tbaa !83
  %41 = getelementptr inbounds nuw %struct.cli_asn1, ptr %40, i32 0, i32 0
  store i8 %39, ptr %41, align 8, !tbaa !82
  %42 = load ptr, ptr %13, align 8, !tbaa !66
  %43 = getelementptr inbounds i8, ptr %42, i64 1
  %44 = load i8, ptr %43, align 1, !tbaa !22
  %45 = zext i8 %44 to i32
  store i32 %45, ptr %12, align 4, !tbaa !20
  %46 = load ptr, ptr %13, align 8, !tbaa !66
  %47 = getelementptr inbounds i8, ptr %46, i64 2
  store ptr %47, ptr %13, align 8, !tbaa !66
  %48 = load i32, ptr %12, align 4, !tbaa !20
  %49 = and i32 %48, 128
  %50 = icmp ne i32 %49, 0
  br i1 %50, label %51, label %85

51:                                               ; preds = %36
  %52 = load i32, ptr %12, align 4, !tbaa !20
  %53 = icmp eq i32 %52, 128
  br i1 %53, label %54, label %55

54:                                               ; preds = %51
  call void (ptr, ...) @cli_dbgmsg(ptr noundef @.str.221)
  store i32 1, ptr %5, align 4
  store i32 1, ptr %14, align 4
  br label %133

55:                                               ; preds = %51
  %56 = load i32, ptr %12, align 4, !tbaa !20
  %57 = and i32 %56, -129
  store i32 %57, ptr %12, align 4, !tbaa !20
  %58 = load i32, ptr %12, align 4, !tbaa !20
  %59 = load i32, ptr %11, align 4, !tbaa !20
  %60 = sub i32 %59, 2
  %61 = icmp ugt i32 %58, %60
  br i1 %61, label %62, label %63

62:                                               ; preds = %55
  call void (ptr, ...) @cli_dbgmsg(ptr noundef @.str.222)
  store i32 1, ptr %5, align 4
  store i32 1, ptr %14, align 4
  br label %133

63:                                               ; preds = %55
  %64 = load ptr, ptr %9, align 8, !tbaa !83
  %65 = getelementptr inbounds nuw %struct.cli_asn1, ptr %64, i32 0, i32 1
  store i32 0, ptr %65, align 4, !tbaa !19
  br label %66

66:                                               ; preds = %70, %63
  %67 = load i32, ptr %12, align 4, !tbaa !20
  %68 = add i32 %67, -1
  store i32 %68, ptr %12, align 4, !tbaa !20
  %69 = icmp ne i32 %67, 0
  br i1 %69, label %70, label %84

70:                                               ; preds = %66
  %71 = load ptr, ptr %9, align 8, !tbaa !83
  %72 = getelementptr inbounds nuw %struct.cli_asn1, ptr %71, i32 0, i32 1
  %73 = load i32, ptr %72, align 4, !tbaa !19
  %74 = shl i32 %73, 8
  store i32 %74, ptr %72, align 4, !tbaa !19
  %75 = load ptr, ptr %13, align 8, !tbaa !66
  %76 = load i8, ptr %75, align 1, !tbaa !22
  %77 = zext i8 %76 to i32
  %78 = load ptr, ptr %9, align 8, !tbaa !83
  %79 = getelementptr inbounds nuw %struct.cli_asn1, ptr %78, i32 0, i32 1
  %80 = load i32, ptr %79, align 4, !tbaa !19
  %81 = or i32 %80, %77
  store i32 %81, ptr %79, align 4, !tbaa !19
  %82 = load ptr, ptr %13, align 8, !tbaa !66
  %83 = getelementptr inbounds nuw i8, ptr %82, i32 1
  store ptr %83, ptr %13, align 8, !tbaa !66
  br label %66

84:                                               ; preds = %66
  br label %89

85:                                               ; preds = %36
  %86 = load i32, ptr %12, align 4, !tbaa !20
  %87 = load ptr, ptr %9, align 8, !tbaa !83
  %88 = getelementptr inbounds nuw %struct.cli_asn1, ptr %87, i32 0, i32 1
  store i32 %86, ptr %88, align 4, !tbaa !19
  br label %89

89:                                               ; preds = %85, %84
  %90 = load ptr, ptr %13, align 8, !tbaa !66
  %91 = load ptr, ptr %7, align 8, !tbaa !62
  %92 = ptrtoint ptr %90 to i64
  %93 = ptrtoint ptr %91 to i64
  %94 = sub i64 %92, %93
  %95 = load i32, ptr %10, align 4, !tbaa !20
  %96 = zext i32 %95 to i64
  %97 = sub nsw i64 %96, %94
  %98 = trunc i64 %97 to i32
  store i32 %98, ptr %10, align 4, !tbaa !20
  %99 = load ptr, ptr %9, align 8, !tbaa !83
  %100 = getelementptr inbounds nuw %struct.cli_asn1, ptr %99, i32 0, i32 1
  %101 = load i32, ptr %100, align 4, !tbaa !19
  %102 = load i32, ptr %10, align 4, !tbaa !20
  %103 = icmp ugt i32 %101, %102
  br i1 %103, label %104, label %105

104:                                              ; preds = %89
  call void (ptr, ...) @cli_dbgmsg(ptr noundef @.str.223)
  store i32 1, ptr %5, align 4
  store i32 1, ptr %14, align 4
  br label %133

105:                                              ; preds = %89
  %106 = load ptr, ptr %13, align 8, !tbaa !66
  %107 = load ptr, ptr %9, align 8, !tbaa !83
  %108 = getelementptr inbounds nuw %struct.cli_asn1, ptr %107, i32 0, i32 2
  store ptr %106, ptr %108, align 8, !tbaa !21
  %109 = load ptr, ptr %9, align 8, !tbaa !83
  %110 = getelementptr inbounds nuw %struct.cli_asn1, ptr %109, i32 0, i32 1
  %111 = load i32, ptr %110, align 4, !tbaa !19
  %112 = load i32, ptr %10, align 4, !tbaa !20
  %113 = icmp eq i32 %111, %112
  br i1 %113, label %114, label %117

114:                                              ; preds = %105
  %115 = load ptr, ptr %9, align 8, !tbaa !83
  %116 = getelementptr inbounds nuw %struct.cli_asn1, ptr %115, i32 0, i32 3
  store ptr null, ptr %116, align 8, !tbaa !16
  br label %126

117:                                              ; preds = %105
  %118 = load ptr, ptr %13, align 8, !tbaa !66
  %119 = load ptr, ptr %9, align 8, !tbaa !83
  %120 = getelementptr inbounds nuw %struct.cli_asn1, ptr %119, i32 0, i32 1
  %121 = load i32, ptr %120, align 4, !tbaa !19
  %122 = zext i32 %121 to i64
  %123 = getelementptr inbounds nuw i8, ptr %118, i64 %122
  %124 = load ptr, ptr %9, align 8, !tbaa !83
  %125 = getelementptr inbounds nuw %struct.cli_asn1, ptr %124, i32 0, i32 3
  store ptr %123, ptr %125, align 8, !tbaa !16
  br label %126

126:                                              ; preds = %117, %114
  %127 = load i32, ptr %10, align 4, !tbaa !20
  %128 = load ptr, ptr %9, align 8, !tbaa !83
  %129 = getelementptr inbounds nuw %struct.cli_asn1, ptr %128, i32 0, i32 1
  %130 = load i32, ptr %129, align 4, !tbaa !19
  %131 = sub i32 %127, %130
  %132 = load ptr, ptr %8, align 8, !tbaa !63
  store i32 %131, ptr %132, align 4, !tbaa !20
  store i32 0, ptr %5, align 4
  store i32 1, ptr %14, align 4
  br label %133

133:                                              ; preds = %126, %104, %62, %54, %35, %26
  call void @llvm.lifetime.end.p0(i64 8, ptr %13) #8
  call void @llvm.lifetime.end.p0(i64 4, ptr %12) #8
  call void @llvm.lifetime.end.p0(i64 4, ptr %11) #8
  call void @llvm.lifetime.end.p0(i64 4, ptr %10) #8
  %134 = load i32, ptr %5, align 4
  ret i32 %134
}