; Function Attrs: nounwind uwtable
define internal fastcc range(i32 0, 2) i32 @asn1_get_obj(ptr noundef %0, ptr noundef %1, ptr noundef nonnull captures(none) %2, ptr noundef nonnull writeonly captures(none) %3) unnamed_addr #0 {
  %5 = load i32, ptr %2, align 4, !tbaa !17
  %6 = tail call i32 @llvm.umin.i32(i32 %5, i32 6)
  %7 = icmp ult i32 %5, 2
  br i1 %7, label %8, label %9

8:                                                ; preds = %4
  tail call void (ptr, ...) @cli_dbgmsg(ptr noundef nonnull @.str.219) #11
  br label %64

9:                                                ; preds = %4
  %10 = zext nneg i32 %6 to i64
  %11 = getelementptr inbounds nuw i8, ptr %0, i64 104
  %12 = load ptr, ptr %11, align 8, !tbaa !19
  %13 = getelementptr i8, ptr %0, i64 16
  %.val.i = load ptr, ptr %13, align 8, !tbaa !20
  %14 = getelementptr i8, ptr %0, i64 72
  %.val4.i = load i64, ptr %14, align 8, !tbaa !21
  %15 = ptrtoint ptr %1 to i64
  %16 = ptrtoint ptr %.val.i to i64
  %17 = add i64 %.val4.i, %16
  %18 = sub i64 %15, %17
  %19 = tail call ptr %12(ptr noundef %0, i64 noundef %18, i64 noundef range(i64 0, 4294967296) %10, i32 noundef 0) #11
  %.not = icmp eq ptr %19, null
  br i1 %.not, label %20, label %21

20:                                               ; preds = %9
  tail call void (ptr, ...) @cli_dbgmsg(ptr noundef nonnull @.str.220) #11
  br label %64

21:                                               ; preds = %9
  %22 = load i8, ptr %19, align 1, !tbaa !22
  store i8 %22, ptr %3, align 8, !tbaa !15
  %23 = getelementptr inbounds nuw i8, ptr %19, i64 1
  %24 = load i8, ptr %23, align 1, !tbaa !22
  %25 = zext i8 %24 to i32
  %26 = getelementptr inbounds nuw i8, ptr %19, i64 2
  %.not49 = icmp sgt i8 %24, -1
  br i1 %.not49, label %47, label %27

27:                                               ; preds = %21
  %28 = icmp eq i8 %24, -128
  br i1 %28, label %29, label %30

29:                                               ; preds = %27
  tail call void (ptr, ...) @cli_dbgmsg(ptr noundef nonnull @.str.221) #11
  br label %64

30:                                               ; preds = %27
  %31 = and i32 %25, 127
  %32 = add nsw i32 %6, -2
  %33 = icmp ugt i32 %31, %32
  br i1 %33, label %34, label %35

34:                                               ; preds = %30
  tail call void (ptr, ...) @cli_dbgmsg(ptr noundef nonnull @.str.222) #11
  br label %64

35:                                               ; preds = %30
  %36 = getelementptr inbounds nuw i8, ptr %3, i64 4
  store i32 0, ptr %36, align 4, !tbaa !16
  %.not5053 = icmp eq i32 %31, 0
  br i1 %.not5053, label %.loopexit.thread, label %.lr.ph

.loopexit.thread:                                 ; preds = %35
  %37 = ptrtoint ptr %26 to i64
  %.neg57 = sub i64 %15, %37
  %38 = trunc i64 %.neg57 to i32
  %39 = add i32 %5, %38
  br label %55

.lr.ph:                                           ; preds = %35, %.lr.ph
  %40 = phi i32 [ %45, %.lr.ph ], [ 0, %35 ]
  %.055 = phi ptr [ %46, %.lr.ph ], [ %26, %35 ]
  %.04154 = phi i32 [ %41, %.lr.ph ], [ %31, %35 ]
  %41 = add nsw i32 %.04154, -1
  %42 = shl i32 %40, 8
  store i32 %42, ptr %36, align 4, !tbaa !16
  %43 = load i8, ptr %.055, align 1, !tbaa !22
  %44 = zext i8 %43 to i32
  %45 = or disjoint i32 %42, %44
  store i32 %45, ptr %36, align 4, !tbaa !16
  %46 = getelementptr inbounds nuw i8, ptr %.055, i64 1
  %.not50 = icmp eq i32 %41, 0
  br i1 %.not50, label %.loopexit, label %.lr.ph

47:                                               ; preds = %21
  %48 = getelementptr inbounds nuw i8, ptr %3, i64 4
  store i32 %25, ptr %48, align 4, !tbaa !16
  br label %.loopexit

.loopexit:                                        ; preds = %.lr.ph, %47
  %49 = phi i32 [ %25, %47 ], [ %45, %.lr.ph ]
  %.1 = phi ptr [ %26, %47 ], [ %46, %.lr.ph ]
  %50 = ptrtoint ptr %.1 to i64
  %.neg = sub i64 %15, %50
  %51 = trunc i64 %.neg to i32
  %52 = add i32 %5, %51
  %53 = icmp ugt i32 %49, %52
  br i1 %53, label %54, label %55

54:                                               ; preds = %.loopexit
  tail call void (ptr, ...) @cli_dbgmsg(ptr noundef nonnull @.str.223) #11
  br label %64

55:                                               ; preds = %.loopexit.thread, %.loopexit
  %56 = phi i32 [ %39, %.loopexit.thread ], [ %52, %.loopexit ]
  %.158 = phi ptr [ %26, %.loopexit.thread ], [ %.1, %.loopexit ]
  %57 = phi i32 [ 0, %.loopexit.thread ], [ %49, %.loopexit ]
  %58 = getelementptr inbounds nuw i8, ptr %3, i64 8
  store ptr %.158, ptr %58, align 8, !tbaa !18
  %59 = icmp eq i32 %57, %56
  %60 = zext i32 %57 to i64
  %61 = getelementptr inbounds nuw i8, ptr %.158, i64 %60
  %.sink = select i1 %59, ptr null, ptr %61
  %62 = getelementptr inbounds nuw i8, ptr %3, i64 16
  store ptr %.sink, ptr %62, align 8, !tbaa !12
  %63 = sub i32 %56, %57
  store i32 %63, ptr %2, align 4, !tbaa !17
  br label %64

64:                                               ; preds = %55, %54, %34, %29, %20, %8
  %.042 = phi i32 [ 1, %8 ], [ 1, %29 ], [ 1, %34 ], [ 1, %54 ], [ 0, %55 ], [ 1, %20 ]
  ret i32 %.042
}